target datalayout = "e-m:e-p270:32:32-p271:32:32-p272:64:64-i64:64-i128:128-f80:128-n8:16:32:64-S128"
target triple = "x86_64-pc-linux-gnu"

%struct.AVIOContext = type { ptr, ptr, i32, ptr, ptr, ptr, ptr, ptr, ptr, i64, i32, i32, i32, i32, i32, i64, ptr, ptr, ptr, ptr, i32, i32, ptr, ptr, ptr, i32, ptr, i64, i64 }

; Function Attrs: alwaysinline nounwind uwtable
define internal i64 @avio_tell(ptr noundef %0) #4 {
  %2 = alloca ptr, align 8
  store ptr %0, ptr %2, align 8, !tbaa !38
  %3 = load ptr, ptr %2, align 8, !tbaa !38
  %4 = call i64 @avio_seek(ptr noundef %3, i64 noundef 0, i32 noundef 1)
  ret i64 %4
}

; Function Attrs: nounwind uwtable
define internal i32 @skip_reserved(ptr noundef %0, i64 noundef %1) #0 {
  %3 = alloca i32, align 4
  %4 = alloca ptr, align 8
  %5 = alloca i64, align 8
  store ptr %0, ptr %4, align 8, !tbaa !38
  store i64 %1, ptr %5, align 8, !tbaa !45
  %6 = load ptr, ptr %4, align 8, !tbaa !38
  %7 = call i64 @avio_tell(ptr noundef %6)
  %8 = load i64, ptr %5, align 8, !tbaa !45
  %9 = sub nsw i64 %8, %7
  store i64 %9, ptr %5, align 8, !tbaa !45
  %10 = load i64, ptr %5, align 8, !tbaa !45
  %11 = icmp slt i64 %10, 0
  br i1 %11, label %12, label %16

12:                                               ; preds = %2
  %13 = load ptr, ptr %4, align 8, !tbaa !38
  %14 = load i64, ptr %5, align 8, !tbaa !45
  %15 = call i64 @avio_seek(ptr noundef %13, i64 noundef %14, i32 noundef 1)
  store i32 -1094995529, ptr %3, align 4
  br label %31

16:                                               ; preds = %2
  br label %17

17:                                               ; preds = %27, %16
  %18 = load i64, ptr %5, align 8, !tbaa !45
  %19 = add nsw i64 %18, -1
  store i64 %19, ptr %5, align 8, !tbaa !45
  %20 = icmp ne i64 %18, 0
  br i1 %20, label %21, label %30

21:                                               ; preds = %17
  %22 = load ptr, ptr %4, align 8, !tbaa !38
  %23 = getelementptr inbounds nuw %struct.AVIOContext, ptr %22, i32 0, i32 10
  %24 = load i32, ptr %23, align 8, !tbaa !108
  %25 = icmp ne i32 %24, 0
  br i1 %25, label %26, label %27

26:                                               ; preds = %21
  store i32 -1094995529, ptr %3, align 4
  br label %31

27:                                               ; preds = %21
  %28 = load ptr, ptr %4, align 8, !tbaa !38
  %29 = call i32 @avio_r8(ptr noundef %28)
  br label %17, !llvm.loop !165

30:                                               ; preds = %17
  store i32 0, ptr %3, align 4
  br label %31

31:                                               ; preds = %30, %26, %12
  %32 = load i32, ptr %3, align 4
  ret i32 %32
}