; Function Attrs: nounwind uwtable
define internal fastcc range(i32 -1094995529, 1) i32 @skip_reserved(ptr noundef %0, i64 noundef %1) unnamed_addr #1 {
  %3 = tail call i64 @avio_seek(ptr noundef %0, i64 noundef 0, i32 noundef 1) #12
  %4 = sub nsw i64 %1, %3
  %5 = icmp slt i64 %4, 0
  br i1 %5, label %7, label %.preheader

.preheader:                                       ; preds = %2
  %6 = getelementptr inbounds nuw i8, ptr %0, i64 80
  %.not11 = icmp eq i64 %1, %3
  br i1 %.not11, label %.loopexit, label %.lr.ph

7:                                                ; preds = %2
  %8 = tail call i64 @avio_seek(ptr noundef %0, i64 noundef %4, i32 noundef 1) #12
  br label %.loopexit

.lr.ph:                                           ; preds = %.preheader, %10
  %.in = phi i64 [ %11, %10 ], [ %4, %.preheader ]
  %9 = load i32, ptr %6, align 8, !tbaa !47
  %.not10 = icmp eq i32 %9, 0
  br i1 %.not10, label %10, label %.loopexit

10:                                               ; preds = %.lr.ph
  %11 = add nsw i64 %.in, -1
  %12 = tail call i32 @avio_r8(ptr noundef nonnull %0) #12
  %.not = icmp eq i64 %11, 0
  br i1 %.not, label %.loopexit, label %.lr.ph, !llvm.loop !64

.loopexit:                                        ; preds = %.lr.ph, %10, %.preheader, %7
  %.08 = phi i32 [ -1094995529, %7 ], [ 0, %.preheader ], [ -1094995529, %.lr.ph ], [ 0, %10 ]
  ret i32 %.08
}